target datalayout = "e-m:e-p270:32:32-p271:32:32-p272:64:64-i64:64-i128:128-f80:128-n8:16:32:64-S128"
target triple = "x86_64-unknown-linux-gnu"

%"class.hermes::Value" = type { i8, %"class.hermes::Type", %"class.llvh::SmallVector" }
%"class.hermes::Type" = type { i16, i16 }
%"class.llvh::SmallVector" = type { %"class.llvh::SmallVectorImpl", %"struct.llvh::SmallVectorStorage" }
%"class.llvh::SmallVectorImpl" = type { %"class.llvh::SmallVectorTemplateBase" }
%"class.llvh::SmallVectorTemplateBase" = type { %"class.llvh::SmallVectorTemplateCommon" }
%"class.llvh::SmallVectorTemplateCommon" = type { %"class.llvh::SmallVectorBase" }
%"class.llvh::SmallVectorBase" = type { ptr, i32, i32 }
%"struct.llvh::SmallVectorStorage" = type { [2 x %"struct.llvh::AlignedCharArrayUnion"] }
%"struct.llvh::AlignedCharArrayUnion" = type { %"struct.llvh::AlignedCharArray" }
%"struct.llvh::AlignedCharArray" = type { [8 x i8] }
%"class.hermes::Instruction" = type <{ %"class.llvh::ilist_node_with_parent", %"class.hermes::Value", ptr, %"class.llvh::SmallVector.0", ptr, %"class.llvh::SMLoc", i32, [4 x i8] }>
%"class.llvh::ilist_node_with_parent" = type { %"class.llvh::ilist_node" }
%"class.llvh::ilist_node" = type { %"class.llvh::ilist_node_impl" }
%"class.llvh::ilist_node_impl" = type { %"class.llvh::ilist_node_base" }
%"class.llvh::ilist_node_base" = type { ptr, ptr }
%"class.llvh::SmallVector.0" = type { %"class.llvh::SmallVectorImpl.1", %"struct.llvh::SmallVectorStorage.4" }
%"class.llvh::SmallVectorImpl.1" = type { %"class.llvh::SmallVectorTemplateBase.2" }
%"class.llvh::SmallVectorTemplateBase.2" = type { %"class.llvh::SmallVectorTemplateCommon.3" }
%"class.llvh::SmallVectorTemplateCommon.3" = type { %"class.llvh::SmallVectorBase" }
%"struct.llvh::SmallVectorStorage.4" = type { [2 x %"struct.llvh::AlignedCharArrayUnion.5"] }
%"struct.llvh::AlignedCharArrayUnion.5" = type { %"struct.llvh::AlignedCharArray.6" }
%"struct.llvh::AlignedCharArray.6" = type { [16 x i8] }
%"class.llvh::SMLoc" = type { ptr }
%"struct.std::pair" = type <{ ptr, i32, [4 x i8] }>

; Function Attrs: mustprogress nounwind uwtable
define linkonce_odr hidden noundef i64 @_ZNK4llvh15SmallVectorBase4sizeEv(ptr noundef nonnull align 8 dereferenceable(16) %this) #0 comdat align 2 {
entry:
  %this.addr = alloca ptr, align 8
  store ptr %this, ptr %this.addr, align 8
  %this1 = load ptr, ptr %this.addr, align 8
  %Size = getelementptr inbounds %"class.llvh::SmallVectorBase", ptr %this1, i32 0, i32 1
  %0 = load i32, ptr %Size, align 8
  %conv = zext i32 %0 to i64
  ret i64 %conv
}

; Function Attrs: mustprogress nounwind uwtable
define hidden noundef ptr @_ZNK6hermes11Instruction10getOperandEj(ptr noundef nonnull align 8 dereferenceable(132) %this, i32 noundef %Index) #0 align 2 {
entry:
  %this.addr.i2 = alloca ptr, align 8
  %this.addr.i = alloca ptr, align 8
  %idx.addr.i = alloca i64, align 8
  %this.addr = alloca ptr, align 8
  %Index.addr = alloca i32, align 4
  store ptr %this, ptr %this.addr, align 8
  store i32 %Index, ptr %Index.addr, align 4
  %this1 = load ptr, ptr %this.addr, align 8
  %Operands = getelementptr inbounds %"class.hermes::Instruction", ptr %this1, i32 0, i32 3
  %0 = load i32, ptr %Index.addr, align 4
  %conv = zext i32 %0 to i64
  store ptr %Operands, ptr %this.addr.i, align 8
  store i64 %conv, ptr %idx.addr.i, align 8
  %this1.i = load ptr, ptr %this.addr.i, align 8
  store ptr %this1.i, ptr %this.addr.i2, align 8
  %this1.i3 = load ptr, ptr %this.addr.i2, align 8
  %1 = load ptr, ptr %this1.i3, align 8
  %2 = load i64, ptr %idx.addr.i, align 8
  %arrayidx.i = getelementptr inbounds %"struct.std::pair", ptr %1, i64 %2
  %first = getelementptr inbounds %"struct.std::pair", ptr %arrayidx.i, i32 0, i32 0
  %3 = load ptr, ptr %first, align 8
  ret ptr %3
}

; Function Attrs: mustprogress nounwind uwtable
define hidden noundef i32 @_ZNK6hermes11Instruction14getNumOperandsEv(ptr noundef nonnull align 8 dereferenceable(132) %this) #0 align 2 {
entry:
  %this.addr = alloca ptr, align 8
  store ptr %this, ptr %this.addr, align 8
  %this1 = load ptr, ptr %this.addr, align 8
  %Operands = getelementptr inbounds %"class.hermes::Instruction", ptr %this1, i32 0, i32 3
  %call = call noundef i64 @_ZNK4llvh15SmallVectorBase4sizeEv(ptr noundef nonnull align 8 dereferenceable(16) %Operands)
  %conv = trunc i64 %call to i32
  ret i32 %conv
}

; Function Attrs: mustprogress nounwind uwtable
define hidden void @_ZN6hermes11Instruction23replaceFirstOperandWithEPNS_5ValueES2_(ptr noundef nonnull align 8 dereferenceable(132) %this, ptr noundef %OldValue, ptr noundef %NewValue) #0 align 2 {
entry:
  %this.addr = alloca ptr, align 8
  %OldValue.addr = alloca ptr, align 8
  %NewValue.addr = alloca ptr, align 8
  %i = alloca i32, align 4
  %e = alloca i32, align 4
  store ptr %this, ptr %this.addr, align 8
  store ptr %OldValue, ptr %OldValue.addr, align 8
  store ptr %NewValue, ptr %NewValue.addr, align 8
  %this1 = load ptr, ptr %this.addr, align 8
  store i32 0, ptr %i, align 4
  %call = call noundef i32 @_ZNK6hermes11Instruction14getNumOperandsEv(ptr noundef nonnull align 8 dereferenceable(132) %this1)
  store i32 %call, ptr %e, align 4
  br label %for.cond

for.cond:                                         ; preds = %for.inc, %entry
  %0 = load i32, ptr %i, align 4
  %1 = load i32, ptr %e, align 4
  %cmp = icmp slt i32 %0, %1
  br i1 %cmp, label %for.body, label %for.end

for.body:                                         ; preds = %for.cond
  %2 = load ptr, ptr %OldValue.addr, align 8
  %3 = load i32, ptr %i, align 4
  %call2 = call noundef ptr @_ZNK6hermes11Instruction10getOperandEj(ptr noundef nonnull align 8 dereferenceable(132) %this1, i32 noundef %3)
  %cmp3 = icmp eq ptr %2, %call2
  br i1 %cmp3, label %if.then, label %if.end

if.then:                                          ; preds = %for.body
  %4 = load ptr, ptr %NewValue.addr, align 8
  %5 = load i32, ptr %i, align 4
  call void @_ZN6hermes11Instruction10setOperandEPNS_5ValueEj(ptr noundef nonnull align 8 dereferenceable(132) %this1, ptr noundef %4, i32 noundef %5)
  ret void

if.end:                                           ; preds = %for.body
  br label %for.inc

for.inc:                                          ; preds = %if.end
  %6 = load i32, ptr %i, align 4
  %inc = add nsw i32 %6, 1
  store i32 %inc, ptr %i, align 4
  br label %for.cond, !llvm.loop !7

for.end:                                          ; preds = %for.cond
  unreachable
}