; Function Attrs: mustprogress nounwind uwtable
define hidden void @_ZN6hermes11Instruction23replaceFirstOperandWithEPNS_5ValueES2_(ptr noundef nonnull align 8 dereferenceable(132) %this, ptr noundef readnone %OldValue, ptr noundef %NewValue) local_unnamed_addr #0 align 2 {
entry:
  %Size.i.i = getelementptr inbounds i8, ptr %this, i64 72
  %0 = load i32, ptr %Size.i.i, align 8
  %Operands.i = getelementptr inbounds i8, ptr %this, i64 64
  %1 = load ptr, ptr %Operands.i, align 8
  %2 = sext i32 %0 to i64
  br label %for.cond

for.cond:                                         ; preds = %for.cond, %entry
  %indvars.iv = phi i64 [ %indvars.iv.next, %for.cond ], [ 0, %entry ]
  %cmp = icmp slt i64 %indvars.iv, %2
  tail call void @llvm.assume(i1 %cmp)
  %arrayidx.i.i = getelementptr inbounds %"struct.std::pair", ptr %1, i64 %indvars.iv
  %3 = load ptr, ptr %arrayidx.i.i, align 8
  %cmp3 = icmp eq ptr %3, %OldValue
  %indvars.iv.next = add nuw nsw i64 %indvars.iv, 1
  br i1 %cmp3, label %if.then, label %for.cond, !llvm.loop !6

if.then:                                          ; preds = %for.cond
  %4 = trunc i64 %indvars.iv to i32
  tail call void @_ZN6hermes11Instruction10setOperandEPNS_5ValueEj(ptr noundef nonnull align 8 dereferenceable(132) %this, ptr noundef %NewValue, i32 noundef %4)
  ret void
}